(lp0
(S'person01'
p1
S'handwaving'
p2
tp3
a(S'person01'
p4
S'handclapping'
p5
tp6
a(S'person01'
p7
S'running'
p8
tp9
a(S'person01'
p10
S'walking'
p11
tp12
a(S'person02'
p13
g5
tp14
a(S'person02'
p15
g8
tp16
a(S'person02'
p17
g11
tp18
a(S'person02'
p19
S'jogging'
p20
tp21
a(S'person03'
p22
g8
tp23
a(S'person03'
p24
g11
tp25
a(S'person03'
p26
g20
tp27
a(S'person03'
p28
S'boxing'
p29
tp30
a(S'person04'
p31
g11
tp32
a(S'person04'
p33
g20
tp34
a(S'person04'
p35
g29
tp36
a(S'person04'
p37
g2
tp38
a(S'person05'
p39
g20
tp40
a(S'person05'
p41
g29
tp42
a(S'person05'
p43
g2
tp44
a(S'person05'
p45
g5
tp46
a(S'person06'
p47
g29
tp48
a(S'person06'
p49
g2
tp50
a(S'person06'
p51
g5
tp52
a(S'person06'
p53
g8
tp54
a(S'person07'
p55
g2
tp56
a(S'person07'
p57
g5
tp58
a(S'person07'
p59
g8
tp60
a(S'person07'
p61
g11
tp62
a(S'person08'
p63
g5
tp64
a(S'person08'
p65
g8
tp66
a(S'person08'
p67
g11
tp68
a(S'person08'
p69
g20
tp70
a(S'person09'
p71
g8
tp72
a(S'person09'
p73
g11
tp74
a(S'person09'
p75
g20
tp76
a(S'person09'
p77
g29
tp78
a(S'person10'
p79
g11
tp80
a(S'person10'
p81
g20
tp82
a(S'person10'
p83
g29
tp84
a(S'person10'
p85
g2
tp86
a(S'person11'
p87
g20
tp88
a(S'person11'
p89
g29
tp90
a(S'person11'
p91
g2
tp92
a(S'person11'
p93
g5
tp94
a(S'person12'
p95
g29
tp96
a(S'person12'
p97
g2
tp98
a(S'person12'
p99
g5
tp100
a(S'person12'
p101
g8
tp102
a(S'person13'
p103
g2
tp104
a(S'person13'
p105
g5
tp106
a(S'person13'
p107
g8
tp108
a(S'person13'
p109
g11
tp110
a(S'person14'
p111
g5
tp112
a(S'person14'
p113
g8
tp114
a(S'person14'
p115
g11
tp116
a(S'person14'
p117
g20
tp118
a(S'person15'
p119
g8
tp120
a(S'person15'
p121
g11
tp122
a(S'person15'
p123
g20
tp124
a(S'person15'
p125
g29
tp126
a(S'person16'
p127
g11
tp128
a(S'person16'
p129
g20
tp130
a(S'person16'
p131
g29
tp132
a(S'person16'
p133
g2
tp134
a(S'person17'
p135
g20
tp136
a(S'person17'
p137
g29
tp138
a(S'person17'
p139
g2
tp140
a(S'person17'
p141
g5
tp142
a(S'person18'
p143
g29
tp144
a(S'person18'
p145
g2
tp146
a(S'person18'
p147
g5
tp148
a(S'person18'
p149
g8
tp150
a(S'person19'
p151
g2
tp152
a(S'person19'
p153
g5
tp154
a(S'person19'
p155
g8
tp156
a(S'person19'
p157
g11
tp158
a(S'person20'
p159
g5
tp160
a(S'person20'
p161
g8
tp162
a(S'person20'
p163
g11
tp164
a(S'person20'
p165
g20
tp166
a(S'person21'
p167
g8
tp168
a(S'person21'
p169
g11
tp170
a(S'person21'
p171
g20
tp172
a(S'person21'
p173
g29
tp174
a(S'person22'
p175
g11
tp176
a(S'person22'
p177
g20
tp178
a(S'person22'
p179
g29
tp180
a(S'person22'
p181
g2
tp182
a(S'person23'
p183
g20
tp184
a(S'person23'
p185
g29
tp186
a(S'person23'
p187
g2
tp188
a(S'person23'
p189
g5
tp190
a(S'person24'
p191
g29
tp192
a(S'person24'
p193
g2
tp194
a(S'person24'
p195
g5
tp196
a(S'person24'
p197
g8
tp198
a(S'person25'
p199
g2
tp200
a(S'person25'
p201
g5
tp202
a(S'person25'
p203
g8
tp204
a(S'person25'
p205
g11
tp206
a.